target datalayout = "e-m:e-p270:32:32-p271:32:32-p272:64:64-i64:64-i128:128-f80:128-n8:16:32:64-S128"
target triple = "x86_64-unknown-linux-gnu"

%struct.UStringSearch = type { ptr, %struct.UPattern, ptr, ptr, ptr, ptr, ptr, i8, i32, i32, i32, i8 }
%struct.UPattern = type { ptr, i32, i32, ptr, [256 x i32], i32, ptr, [256 x i64], i8, i8 }
%struct.USearch = type { ptr, i32, i8, i8, i16, ptr, ptr, i32, i32, i8, i8 }

; Function Attrs: mustprogress nounwind uwtable
define i32 @usearch_getAttribute_75(ptr noundef %strsrch, i32 noundef %attribute) #1 {
entry:
  %retval = alloca i32, align 4
  %strsrch.addr = alloca ptr, align 8
  %attribute.addr = alloca i32, align 4
  %value = alloca i16, align 2
  store ptr %strsrch, ptr %strsrch.addr, align 8
  store i32 %attribute, ptr %attribute.addr, align 4
  %0 = load ptr, ptr %strsrch.addr, align 8
  %tobool = icmp ne ptr %0, null
  br i1 %tobool, label %if.then, label %if.end

if.then:                                          ; preds = %entry
  %1 = load i32, ptr %attribute.addr, align 4
  switch i32 %1, label %sw.epilog [
    i32 0, label %sw.bb
    i32 1, label %sw.bb2
    i32 2, label %sw.bb6
    i32 3, label %sw.bb12
  ]

sw.bb:                                            ; preds = %if.then
  %2 = load ptr, ptr %strsrch.addr, align 8
  %search = getelementptr inbounds %struct.UStringSearch, ptr %2, i32 0, i32 0
  %3 = load ptr, ptr %search, align 8
  %isOverlap = getelementptr inbounds %struct.USearch, ptr %3, i32 0, i32 2
  %4 = load i8, ptr %isOverlap, align 4
  %tobool1 = icmp ne i8 %4, 0
  %cond = select i1 %tobool1, i32 1, i32 0
  store i32 %cond, ptr %retval, align 4
  br label %return

sw.bb2:                                           ; preds = %if.then
  %5 = load ptr, ptr %strsrch.addr, align 8
  %search3 = getelementptr inbounds %struct.UStringSearch, ptr %5, i32 0, i32 0
  %6 = load ptr, ptr %search3, align 8
  %isCanonicalMatch = getelementptr inbounds %struct.USearch, ptr %6, i32 0, i32 3
  %7 = load i8, ptr %isCanonicalMatch, align 1
  %tobool4 = icmp ne i8 %7, 0
  %cond5 = select i1 %tobool4, i32 1, i32 0
  store i32 %cond5, ptr %retval, align 4
  br label %return

sw.bb6:                                           ; preds = %if.then
  %8 = load ptr, ptr %strsrch.addr, align 8
  %search7 = getelementptr inbounds %struct.UStringSearch, ptr %8, i32 0, i32 0
  %9 = load ptr, ptr %search7, align 8
  %elementComparisonType = getelementptr inbounds %struct.USearch, ptr %9, i32 0, i32 4
  %10 = load i16, ptr %elementComparisonType, align 2
  store i16 %10, ptr %value, align 2
  %11 = load i16, ptr %value, align 2
  %conv = sext i16 %11 to i32
  %cmp = icmp eq i32 %conv, 3
  br i1 %cmp, label %if.then10, label %lor.lhs.false

lor.lhs.false:                                    ; preds = %sw.bb6
  %12 = load i16, ptr %value, align 2
  %conv8 = sext i16 %12 to i32
  %cmp9 = icmp eq i32 %conv8, 4
  br i1 %cmp9, label %if.then10, label %if.else

if.then10:                                        ; preds = %lor.lhs.false, %sw.bb6
  %13 = load i16, ptr %value, align 2
  %conv11 = sext i16 %13 to i32
  store i32 %conv11, ptr %retval, align 4
  br label %return

if.else:                                          ; preds = %lor.lhs.false
  store i32 2, ptr %retval, align 4
  br label %return

sw.bb12:                                          ; preds = %if.then
  store i32 -1, ptr %retval, align 4
  br label %return

sw.epilog:                                        ; preds = %if.then
  br label %if.end

if.end:                                           ; preds = %sw.epilog, %entry
  store i32 -1, ptr %retval, align 4
  br label %return

return:                                           ; preds = %if.end, %sw.bb12, %if.else, %if.then10, %sw.bb2, %sw.bb
  %14 = load i32, ptr %retval, align 4
  ret i32 %14
}