; Function Attrs: mustprogress nofree norecurse nosync nounwind willreturn memory(read, inaccessiblemem: none) uwtable
define i32 @usearch_getAttribute_75(ptr noundef readonly %strsrch, i32 noundef %attribute) local_unnamed_addr #5 {
entry:
  %tobool.not = icmp eq ptr %strsrch, null
  br i1 %tobool.not, label %return, label %if.then

if.then:                                          ; preds = %entry
  switch i32 %attribute, label %return [
    i32 0, label %sw.bb
    i32 1, label %sw.bb2
    i32 2, label %sw.bb6
  ]

sw.bb:                                            ; preds = %if.then
  %0 = load ptr, ptr %strsrch, align 8
  %isOverlap = getelementptr inbounds i8, ptr %0, i64 12
  %1 = load i8, ptr %isOverlap, align 4
  %tobool1.not = icmp ne i8 %1, 0
  %cond = zext i1 %tobool1.not to i32
  br label %return

sw.bb2:                                           ; preds = %if.then
  %2 = load ptr, ptr %strsrch, align 8
  %isCanonicalMatch = getelementptr inbounds i8, ptr %2, i64 13
  %3 = load i8, ptr %isCanonicalMatch, align 1
  %tobool4.not = icmp ne i8 %3, 0
  %cond5 = zext i1 %tobool4.not to i32
  br label %return

sw.bb6:                                           ; preds = %if.then
  %4 = load ptr, ptr %strsrch, align 8
  %elementComparisonType = getelementptr inbounds i8, ptr %4, i64 14
  %5 = load i16, ptr %elementComparisonType, align 2
  %6 = add i16 %5, -3
  %or.cond = icmp ult i16 %6, 2
  %narrow = select i1 %or.cond, i16 %5, i16 2
  %spec.select = sext i16 %narrow to i32
  br label %return

return:                                           ; preds = %sw.bb6, %entry, %if.then, %sw.bb2, %sw.bb
  %retval.0 = phi i32 [ %cond5, %sw.bb2 ], [ %cond, %sw.bb ], [ -1, %if.then ], [ -1, %entry ], [ %spec.select, %sw.bb6 ]
  ret i32 %retval.0
}